target datalayout = "e-m:e-p270:32:32-p271:32:32-p272:64:64-i64:64-i128:128-f80:128-n8:16:32:64-S128"
target triple = "x86_64-unknown-linux-gnu"

%"class.icu_75::UnicodeString" = type { %"class.icu_75::Replaceable", %"union.icu_75::UnicodeString::StackBufferOrFields" }
%"class.icu_75::Replaceable" = type { %"class.icu_75::UObject" }
%"class.icu_75::UObject" = type { ptr }
%"union.icu_75::UnicodeString::StackBufferOrFields" = type { %struct.anon.0, [32 x i8] }
%struct.anon.0 = type { i16, i32, i32, ptr }
%struct.anon = type { i16, [27 x i16] }

; Function Attrs: mustprogress nounwind uwtable
define linkonce_odr noundef i32 @_ZNK6icu_7513UnicodeString14getShortLengthEv(ptr noundef nonnull align 8 dereferenceable(64) %this) #0 comdat align 2 {
entry:
  %this.addr = alloca ptr, align 8
  store ptr %this, ptr %this.addr, align 8
  %this1 = load ptr, ptr %this.addr, align 8
  %fUnion = getelementptr inbounds %"class.icu_75::UnicodeString", ptr %this1, i32 0, i32 1
  %fLengthAndFlags = getelementptr inbounds %struct.anon.0, ptr %fUnion, i32 0, i32 0
  %0 = load i16, ptr %fLengthAndFlags, align 8
  %conv = sext i16 %0 to i32
  %shr = ashr i32 %conv, 5
  ret i32 %shr
}

; Function Attrs: mustprogress nounwind uwtable
define linkonce_odr noundef signext i8 @_ZNK6icu_7513UnicodeString14hasShortLengthEv(ptr noundef nonnull align 8 dereferenceable(64) %this) #0 comdat align 2 {
entry:
  %this.addr = alloca ptr, align 8
  store ptr %this, ptr %this.addr, align 8
  %this1 = load ptr, ptr %this.addr, align 8
  %fUnion = getelementptr inbounds %"class.icu_75::UnicodeString", ptr %this1, i32 0, i32 1
  %fLengthAndFlags = getelementptr inbounds %struct.anon.0, ptr %fUnion, i32 0, i32 0
  %0 = load i16, ptr %fLengthAndFlags, align 8
  %conv = sext i16 %0 to i32
  %cmp = icmp sge i32 %conv, 0
  %conv2 = zext i1 %cmp to i8
  ret i8 %conv2
}

; Function Attrs: mustprogress nounwind uwtable
define internal noundef signext i8 @_ZL9U_SUCCESS10UErrorCode(i32 noundef %code) #0 {
entry:
  %code.addr = alloca i32, align 4
  store i32 %code, ptr %code.addr, align 4
  %0 = load i32, ptr %code.addr, align 4
  %cmp = icmp sle i32 %0, 0
  %conv = zext i1 %cmp to i8
  ret i8 %conv
}

; Function Attrs: mustprogress nounwind uwtable
define linkonce_odr noundef ptr @_ZNK6icu_7513UnicodeString9getBufferEv(ptr noundef nonnull align 8 dereferenceable(64) %this) #0 comdat align 2 {
entry:
  %retval = alloca ptr, align 8
  %this.addr = alloca ptr, align 8
  store ptr %this, ptr %this.addr, align 8
  %this1 = load ptr, ptr %this.addr, align 8
  %fUnion = getelementptr inbounds %"class.icu_75::UnicodeString", ptr %this1, i32 0, i32 1
  %fLengthAndFlags = getelementptr inbounds %struct.anon.0, ptr %fUnion, i32 0, i32 0
  %0 = load i16, ptr %fLengthAndFlags, align 8
  %conv = sext i16 %0 to i32
  %and = and i32 %conv, 17
  %tobool = icmp ne i32 %and, 0
  br i1 %tobool, label %if.then, label %if.else

if.then:                                          ; preds = %entry
  store ptr null, ptr %retval, align 8
  br label %return

if.else:                                          ; preds = %entry
  %fUnion2 = getelementptr inbounds %"class.icu_75::UnicodeString", ptr %this1, i32 0, i32 1
  %fLengthAndFlags3 = getelementptr inbounds %struct.anon.0, ptr %fUnion2, i32 0, i32 0
  %1 = load i16, ptr %fLengthAndFlags3, align 8
  %conv4 = sext i16 %1 to i32
  %and5 = and i32 %conv4, 2
  %tobool6 = icmp ne i32 %and5, 0
  br i1 %tobool6, label %if.then7, label %if.else9

if.then7:                                         ; preds = %if.else
  %fUnion8 = getelementptr inbounds %"class.icu_75::UnicodeString", ptr %this1, i32 0, i32 1
  %fBuffer = getelementptr inbounds %struct.anon, ptr %fUnion8, i32 0, i32 1
  %arraydecay = getelementptr inbounds [27 x i16], ptr %fBuffer, i64 0, i64 0
  store ptr %arraydecay, ptr %retval, align 8
  br label %return

if.else9:                                         ; preds = %if.else
  %fUnion10 = getelementptr inbounds %"class.icu_75::UnicodeString", ptr %this1, i32 0, i32 1
  %fArray = getelementptr inbounds %struct.anon.0, ptr %fUnion10, i32 0, i32 3
  %2 = load ptr, ptr %fArray, align 8
  store ptr %2, ptr %retval, align 8
  br label %return

return:                                           ; preds = %if.else9, %if.then7, %if.then
  %3 = load ptr, ptr %retval, align 8
  ret ptr %3
}

; Function Attrs: mustprogress uwtable
define linkonce_odr noundef i32 @_ZNK6icu_7513UnicodeString6lengthEv(ptr noundef nonnull align 8 dereferenceable(64) %this) #3 comdat align 2 {
entry:
  %this.addr = alloca ptr, align 8
  store ptr %this, ptr %this.addr, align 8
  %this1 = load ptr, ptr %this.addr, align 8
  %call = call noundef signext i8 @_ZNK6icu_7513UnicodeString14hasShortLengthEv(ptr noundef nonnull align 8 dereferenceable(64) %this1)
  %tobool = icmp ne i8 %call, 0
  br i1 %tobool, label %cond.true, label %cond.false

cond.true:                                        ; preds = %entry
  %call2 = call noundef i32 @_ZNK6icu_7513UnicodeString14getShortLengthEv(ptr noundef nonnull align 8 dereferenceable(64) %this1)
  br label %cond.end

cond.false:                                       ; preds = %entry
  %fUnion = getelementptr inbounds %"class.icu_75::UnicodeString", ptr %this1, i32 0, i32 1
  %fLength = getelementptr inbounds %struct.anon.0, ptr %fUnion, i32 0, i32 1
  %0 = load i32, ptr %fLength, align 4
  br label %cond.end

cond.end:                                         ; preds = %cond.false, %cond.true
  %cond = phi i32 [ %call2, %cond.true ], [ %0, %cond.false ]
  ret i32 %cond
}

; Function Attrs: mustprogress uwtable
define void @_ZNK6icu_7513UnicodeString6toUTF8ERNS_8ByteSinkE(ptr noundef nonnull align 8 dereferenceable(64) %this, ptr noundef nonnull align 8 dereferenceable(8) %sink) #3 align 2 {
entry:
  %this.addr = alloca ptr, align 8
  %sink.addr = alloca ptr, align 8
  %length16 = alloca i32, align 4
  %stackBuffer = alloca [1024 x i8], align 16
  %capacity = alloca i32, align 4
  %utf8IsOwned = alloca i8, align 1
  %utf8 = alloca ptr, align 8
  %length8 = alloca i32, align 4
  %errorCode = alloca i32, align 4
  store ptr %this, ptr %this.addr, align 8
  store ptr %sink, ptr %sink.addr, align 8
  %this1 = load ptr, ptr %this.addr, align 8
  %call = call noundef i32 @_ZNK6icu_7513UnicodeString6lengthEv(ptr noundef nonnull align 8 dereferenceable(64) %this1)
  store i32 %call, ptr %length16, align 4
  %0 = load i32, ptr %length16, align 4
  %cmp = icmp ne i32 %0, 0
  br i1 %cmp, label %if.then, label %if.end24

if.then:                                          ; preds = %entry
  store i32 1024, ptr %capacity, align 4
  store i8 0, ptr %utf8IsOwned, align 1
  %1 = load ptr, ptr %sink.addr, align 8
  %2 = load i32, ptr %length16, align 4
  %3 = load i32, ptr %capacity, align 4
  %cmp2 = icmp slt i32 %2, %3
  br i1 %cmp2, label %cond.true, label %cond.false

cond.true:                                        ; preds = %if.then
  %4 = load i32, ptr %length16, align 4
  br label %cond.end

cond.false:                                       ; preds = %if.then
  %5 = load i32, ptr %capacity, align 4
  br label %cond.end

cond.end:                                         ; preds = %cond.false, %cond.true
  %cond = phi i32 [ %4, %cond.true ], [ %5, %cond.false ]
  %6 = load i32, ptr %length16, align 4
  %mul = mul nsw i32 3, %6
  %arraydecay = getelementptr inbounds [1024 x i8], ptr %stackBuffer, i64 0, i64 0
  %7 = load i32, ptr %capacity, align 4
  %vtable = load ptr, ptr %1, align 8
  %vfn = getelementptr inbounds ptr, ptr %vtable, i64 3
  %8 = load ptr, ptr %vfn, align 8
  %call3 = call noundef ptr %8(ptr noundef nonnull align 8 dereferenceable(8) %1, i32 noundef %cond, i32 noundef %mul, ptr noundef %arraydecay, i32 noundef %7, ptr noundef %capacity)
  store ptr %call3, ptr %utf8, align 8
  store i32 0, ptr %length8, align 4
  store i32 0, ptr %errorCode, align 4
  %9 = load ptr, ptr %utf8, align 8
  %10 = load i32, ptr %capacity, align 4
  %call4 = call noundef ptr @_ZNK6icu_7513UnicodeString9getBufferEv(ptr noundef nonnull align 8 dereferenceable(64) %this1)
  %11 = load i32, ptr %length16, align 4
  %call5 = call ptr @u_strToUTF8WithSub_75(ptr noundef %9, i32 noundef %10, ptr noundef %length8, ptr noundef %call4, i32 noundef %11, i32 noundef 65533, ptr noundef null, ptr noundef %errorCode)
  %12 = load i32, ptr %errorCode, align 4
  %cmp6 = icmp eq i32 %12, 15
  br i1 %cmp6, label %if.then7, label %if.end13

if.then7:                                         ; preds = %cond.end
  %13 = load i32, ptr %length8, align 4
  %conv = sext i32 %13 to i64
  %call8 = call noalias ptr @uprv_malloc_75(i64 noundef %conv) #11
  store ptr %call8, ptr %utf8, align 8
  %14 = load ptr, ptr %utf8, align 8
  %cmp9 = icmp ne ptr %14, null
  br i1 %cmp9, label %if.then10, label %if.else

if.then10:                                        ; preds = %if.then7
  store i8 1, ptr %utf8IsOwned, align 1
  store i32 0, ptr %errorCode, align 4
  %15 = load ptr, ptr %utf8, align 8
  %16 = load i32, ptr %length8, align 4
  %call11 = call noundef ptr @_ZNK6icu_7513UnicodeString9getBufferEv(ptr noundef nonnull align 8 dereferenceable(64) %this1)
  %17 = load i32, ptr %length16, align 4
  %call12 = call ptr @u_strToUTF8WithSub_75(ptr noundef %15, i32 noundef %16, ptr noundef %length8, ptr noundef %call11, i32 noundef %17, i32 noundef 65533, ptr noundef null, ptr noundef %errorCode)
  br label %if.end

if.else:                                          ; preds = %if.then7
  store i32 7, ptr %errorCode, align 4
  br label %if.end

if.end:                                           ; preds = %if.else, %if.then10
  br label %if.end13

if.end13:                                         ; preds = %if.end, %cond.end
  %18 = load i32, ptr %errorCode, align 4
  %call14 = call noundef signext i8 @_ZL9U_SUCCESS10UErrorCode(i32 noundef %18)
  %tobool = icmp ne i8 %call14, 0
  br i1 %tobool, label %if.then15, label %if.end20

if.then15:                                        ; preds = %if.end13
  %19 = load ptr, ptr %sink.addr, align 8
  %20 = load ptr, ptr %utf8, align 8
  %21 = load i32, ptr %length8, align 4
  %vtable16 = load ptr, ptr %19, align 8
  %vfn17 = getelementptr inbounds ptr, ptr %vtable16, i64 2
  %22 = load ptr, ptr %vfn17, align 8
  call void %22(ptr noundef nonnull align 8 dereferenceable(8) %19, ptr noundef %20, i32 noundef %21)
  %23 = load ptr, ptr %sink.addr, align 8
  %vtable18 = load ptr, ptr %23, align 8
  %vfn19 = getelementptr inbounds ptr, ptr %vtable18, i64 4
  %24 = load ptr, ptr %vfn19, align 8
  call void %24(ptr noundef nonnull align 8 dereferenceable(8) %23)
  br label %if.end20

if.end20:                                         ; preds = %if.then15, %if.end13
  %25 = load i8, ptr %utf8IsOwned, align 1
  %tobool21 = icmp ne i8 %25, 0
  br i1 %tobool21, label %if.then22, label %if.end23

if.then22:                                        ; preds = %if.end20
  %26 = load ptr, ptr %utf8, align 8
  call void @uprv_free_75(ptr noundef %26)
  br label %if.end23

if.end23:                                         ; preds = %if.then22, %if.end20
  br label %if.end24

if.end24:                                         ; preds = %if.end23, %entry
  ret void
}