; Function Attrs: mustprogress uwtable
define void @_ZNK6icu_7513UnicodeString6toUTF8ERNS_8ByteSinkE(ptr noundef nonnull align 8 dereferenceable(64) %this, ptr noundef nonnull align 8 dereferenceable(8) %sink) local_unnamed_addr #5 align 2 {
entry:
  %stackBuffer = alloca [1024 x i8], align 16
  %capacity = alloca i32, align 4
  %length8 = alloca i32, align 4
  %errorCode = alloca i32, align 4
  %fUnion.i.i = getelementptr inbounds i8, ptr %this, i64 8
  %0 = load i16, ptr %fUnion.i.i, align 8
  %cmp.i.i = icmp slt i16 %0, 0
  %1 = ashr i16 %0, 5
  %shr.i.i = sext i16 %1 to i32
  %fLength.i = getelementptr inbounds i8, ptr %this, i64 12
  %2 = load i32, ptr %fLength.i, align 4
  %cond.i = select i1 %cmp.i.i, i32 %2, i32 %shr.i.i
  %cmp.not = icmp eq i32 %cond.i, 0
  br i1 %cmp.not, label %if.end24, label %if.then

if.then:                                          ; preds = %entry
  store i32 1024, ptr %capacity, align 4
  %cond = tail call i32 @llvm.smin.i32(i32 %cond.i, i32 1024)
  %mul = mul nsw i32 %cond.i, 3
  %vtable = load ptr, ptr %sink, align 8
  %vfn = getelementptr inbounds i8, ptr %vtable, i64 24
  %3 = load ptr, ptr %vfn, align 8
  %call3 = call noundef ptr %3(ptr noundef nonnull align 8 dereferenceable(8) %sink, i32 noundef %cond, i32 noundef %mul, ptr noundef nonnull %stackBuffer, i32 noundef 1024, ptr noundef nonnull %capacity)
  store i32 0, ptr %length8, align 4
  store i32 0, ptr %errorCode, align 4
  %4 = load i32, ptr %capacity, align 4
  %5 = load i16, ptr %fUnion.i.i, align 8
  %conv1.i = zext i16 %5 to i32
  %and.i = and i32 %conv1.i, 17
  %tobool.not.i = icmp eq i32 %and.i, 0
  br i1 %tobool.not.i, label %if.else.i, label %_ZNK6icu_7513UnicodeString9getBufferEv.exit

if.else.i:                                        ; preds = %if.then
  %and5.i = and i32 %conv1.i, 2
  %tobool6.not.i = icmp eq i32 %and5.i, 0
  br i1 %tobool6.not.i, label %if.else9.i, label %if.then7.i

if.then7.i:                                       ; preds = %if.else.i
  %fBuffer.i = getelementptr inbounds i8, ptr %this, i64 10
  br label %_ZNK6icu_7513UnicodeString9getBufferEv.exit

if.else9.i:                                       ; preds = %if.else.i
  %fArray.i = getelementptr inbounds i8, ptr %this, i64 24
  %6 = load ptr, ptr %fArray.i, align 8
  br label %_ZNK6icu_7513UnicodeString9getBufferEv.exit

_ZNK6icu_7513UnicodeString9getBufferEv.exit:      ; preds = %if.then, %if.then7.i, %if.else9.i
  %retval.0.i = phi ptr [ %fBuffer.i, %if.then7.i ], [ %6, %if.else9.i ], [ null, %if.then ]
  %call5 = call ptr @u_strToUTF8WithSub_75(ptr noundef %call3, i32 noundef %4, ptr noundef nonnull %length8, ptr noundef %retval.0.i, i32 noundef %cond.i, i32 noundef 65533, ptr noundef null, ptr noundef nonnull %errorCode)
  %7 = load i32, ptr %errorCode, align 4
  %cmp6.not = icmp eq i32 %7, 15
  br i1 %cmp6.not, label %if.then7, label %if.end13

if.then7:                                         ; preds = %_ZNK6icu_7513UnicodeString9getBufferEv.exit
  %8 = load i32, ptr %length8, align 4
  %conv = sext i32 %8 to i64
  %call8 = call noalias ptr @uprv_malloc_75(i64 noundef %conv) #24
  %cmp9.not = icmp eq ptr %call8, null
  br i1 %cmp9.not, label %if.end24, label %if.then10

if.then10:                                        ; preds = %if.then7
  store i32 0, ptr %errorCode, align 4
  %9 = load i32, ptr %length8, align 4
  %10 = load i16, ptr %fUnion.i.i, align 8
  %conv1.i13 = zext i16 %10 to i32
  %and.i14 = and i32 %conv1.i13, 17
  %tobool.not.i15 = icmp eq i32 %and.i14, 0
  br i1 %tobool.not.i15, label %if.else.i17, label %_ZNK6icu_7513UnicodeString9getBufferEv.exit24

if.else.i17:                                      ; preds = %if.then10
  %and5.i18 = and i32 %conv1.i13, 2
  %tobool6.not.i19 = icmp eq i32 %and5.i18, 0
  br i1 %tobool6.not.i19, label %if.else9.i22, label %if.then7.i20

if.then7.i20:                                     ; preds = %if.else.i17
  %fBuffer.i21 = getelementptr inbounds i8, ptr %this, i64 10
  br label %_ZNK6icu_7513UnicodeString9getBufferEv.exit24

if.else9.i22:                                     ; preds = %if.else.i17
  %fArray.i23 = getelementptr inbounds i8, ptr %this, i64 24
  %11 = load ptr, ptr %fArray.i23, align 8
  br label %_ZNK6icu_7513UnicodeString9getBufferEv.exit24

_ZNK6icu_7513UnicodeString9getBufferEv.exit24:    ; preds = %if.then10, %if.then7.i20, %if.else9.i22
  %retval.0.i16 = phi ptr [ %fBuffer.i21, %if.then7.i20 ], [ %11, %if.else9.i22 ], [ null, %if.then10 ]
  %call12 = call ptr @u_strToUTF8WithSub_75(ptr noundef nonnull %call8, i32 noundef %9, ptr noundef nonnull %length8, ptr noundef %retval.0.i16, i32 noundef %cond.i, i32 noundef 65533, ptr noundef null, ptr noundef nonnull %errorCode)
  %.pre = load i32, ptr %errorCode, align 4
  br label %if.end13

if.end13:                                         ; preds = %_ZNK6icu_7513UnicodeString9getBufferEv.exit24, %_ZNK6icu_7513UnicodeString9getBufferEv.exit
  %12 = phi i32 [ %.pre, %_ZNK6icu_7513UnicodeString9getBufferEv.exit24 ], [ %7, %_ZNK6icu_7513UnicodeString9getBufferEv.exit ]
  %utf8.0 = phi ptr [ %call8, %_ZNK6icu_7513UnicodeString9getBufferEv.exit24 ], [ %call3, %_ZNK6icu_7513UnicodeString9getBufferEv.exit ]
  %cmp.i = icmp sgt i32 %12, 0
  br i1 %cmp.i, label %if.end20, label %if.then15

if.then15:                                        ; preds = %if.end13
  %13 = load i32, ptr %length8, align 4
  %vtable16 = load ptr, ptr %sink, align 8
  %vfn17 = getelementptr inbounds i8, ptr %vtable16, i64 16
  %14 = load ptr, ptr %vfn17, align 8
  call void %14(ptr noundef nonnull align 8 dereferenceable(8) %sink, ptr noundef %utf8.0, i32 noundef %13)
  %vtable18 = load ptr, ptr %sink, align 8
  %vfn19 = getelementptr inbounds i8, ptr %vtable18, i64 32
  %15 = load ptr, ptr %vfn19, align 8
  call void %15(ptr noundef nonnull align 8 dereferenceable(8) %sink)
  br i1 %cmp6.not, label %if.then22, label %if.end24

if.end20:                                         ; preds = %if.end13
  br i1 %cmp6.not, label %if.then22, label %if.end24

if.then22:                                        ; preds = %if.then15, %if.end20
  call void @uprv_free_75(ptr noundef %utf8.0)
  br label %if.end24

if.end24:                                         ; preds = %if.then7, %if.then15, %if.end20, %if.then22, %entry
  ret void
}